; Function Attrs: mustprogress uwtable
define noundef i32 @_ZNK6icu_756number4impl22MutablePatternModifier17getCodePointCountEv(ptr noundef nonnull align 8 dereferenceable(392) %this) unnamed_addr #1 align 2 {
entry:
  %status = alloca i32, align 4
  store i32 0, ptr %status, align 4
  %fPatternInfo.i = getelementptr inbounds i8, ptr %this, i64 32
  %0 = load ptr, ptr %fPatternInfo.i, align 8
  %fSignDisplay.i = getelementptr inbounds i8, ptr %this, i64 44
  %1 = load i32, ptr %fSignDisplay.i, align 4
  %fSignum.i = getelementptr inbounds i8, ptr %this, i64 312
  %2 = load i32, ptr %fSignum.i, align 8
  %call.i = tail call noundef i32 @_ZN6icu_756number4impl18PatternStringUtils18resolveSignDisplayE18UNumberSignDisplayNS1_6SignumE(i32 noundef %1, i32 noundef %2)
  %fApproximately.i = getelementptr inbounds i8, ptr %this, i64 49
  %fPlural.i = getelementptr inbounds i8, ptr %this, i64 316
  %3 = load i32, ptr %fPlural.i, align 4
  %fPerMilleReplacesPercent.i = getelementptr inbounds i8, ptr %this, i64 48
  %4 = load <2 x i8>, ptr %fPerMilleReplacesPercent.i, align 8
  %5 = trunc <2 x i8> %4 to <2 x i1>
  %currentAffix.i = getelementptr inbounds i8, ptr %this, i64 328
  %6 = extractelement <2 x i1> %5, i64 0
  %7 = extractelement <2 x i1> %5, i64 1
  tail call void @_ZN6icu_756number4impl18PatternStringUtils26patternInfoToStringBuilderERKNS1_20AffixPatternProviderEbNS1_15PatternSignTypeEbNS_14StandardPlural4FormEbbRNS_13UnicodeStringE(ptr noundef nonnull align 8 dereferenceable(8) %0, i1 noundef zeroext true, i32 noundef %call.i, i1 noundef zeroext %7, i32 noundef %3, i1 noundef zeroext %6, i1 noundef zeroext false, ptr noundef nonnull align 8 dereferenceable(64) %currentAffix.i)
  %add.ptr = getelementptr inbounds i8, ptr %this, i64 16
  %call = call noundef i32 @_ZN6icu_756number4impl10AffixUtils23unescapedCodePointCountERKNS_13UnicodeStringERKNS1_14SymbolProviderER10UErrorCode(ptr noundef nonnull align 8 dereferenceable(64) %currentAffix.i, ptr noundef nonnull align 8 dereferenceable(8) %add.ptr, ptr noundef nonnull align 4 dereferenceable(4) %status)
  %8 = load ptr, ptr %fPatternInfo.i, align 8
  %9 = load i32, ptr %fSignDisplay.i, align 4
  %10 = load i32, ptr %fSignum.i, align 8
  %call.i6 = call noundef i32 @_ZN6icu_756number4impl18PatternStringUtils18resolveSignDisplayE18UNumberSignDisplayNS1_6SignumE(i32 noundef %9, i32 noundef %10)
  %11 = load i8, ptr %fApproximately.i, align 1
  %12 = and i8 %11, 1
  %tobool2.i8 = icmp ne i8 %12, 0
  %13 = load i32, ptr %fPlural.i, align 4
  %14 = load i8, ptr %fPerMilleReplacesPercent.i, align 8
  %15 = and i8 %14, 1
  %tobool3.i11 = icmp ne i8 %15, 0
  call void @_ZN6icu_756number4impl18PatternStringUtils26patternInfoToStringBuilderERKNS1_20AffixPatternProviderEbNS1_15PatternSignTypeEbNS_14StandardPlural4FormEbbRNS_13UnicodeStringE(ptr noundef nonnull align 8 dereferenceable(8) %8, i1 noundef zeroext false, i32 noundef %call.i6, i1 noundef zeroext %tobool2.i8, i32 noundef %13, i1 noundef zeroext %tobool3.i11, i1 noundef zeroext false, ptr noundef nonnull align 8 dereferenceable(64) %currentAffix.i)
  %call4 = call noundef i32 @_ZN6icu_756number4impl10AffixUtils23unescapedCodePointCountERKNS_13UnicodeStringERKNS1_14SymbolProviderER10UErrorCode(ptr noundef nonnull align 8 dereferenceable(64) %currentAffix.i, ptr noundef nonnull align 8 dereferenceable(8) %add.ptr, ptr noundef nonnull align 4 dereferenceable(4) %status)
  %add = add nsw i32 %call4, %call
  ret i32 %add
}